
BootloaderProto.elf:     file format elf32-avr

Sections:
Idx Name          Size      VMA       LMA       File off  Algn
  0 .data         00000162  00800100  0000f974  00000a08  2**0
                  CONTENTS, ALLOC, LOAD, DATA
  1 .text         00000974  0000f000  0000f000  00000094  2**1
                  CONTENTS, ALLOC, LOAD, READONLY, CODE
  2 .bss          0000006d  00800262  00800262  00000b6a  2**0
                  ALLOC
  3 .comment      00000030  00000000  00000000  00000b6a  2**0
                  CONTENTS, READONLY
  4 .note.gnu.avr.deviceinfo 00000040  00000000  00000000  00000b9c  2**2
                  CONTENTS, READONLY
  5 .debug_aranges 00000090  00000000  00000000  00000bdc  2**0
                  CONTENTS, READONLY, DEBUGGING
  6 .debug_info   00001d21  00000000  00000000  00000c6c  2**0
                  CONTENTS, READONLY, DEBUGGING
  7 .debug_abbrev 00000a23  00000000  00000000  0000298d  2**0
                  CONTENTS, READONLY, DEBUGGING
  8 .debug_line   00000af4  00000000  00000000  000033b0  2**0
                  CONTENTS, READONLY, DEBUGGING
  9 .debug_frame  00000208  00000000  00000000  00003ea4  2**2
                  CONTENTS, READONLY, DEBUGGING
 10 .debug_str    00000770  00000000  00000000  000040ac  2**0
                  CONTENTS, READONLY, DEBUGGING
 11 .debug_loc    00000fae  00000000  00000000  0000481c  2**0
                  CONTENTS, READONLY, DEBUGGING
 12 .debug_ranges 000000f8  00000000  00000000  000057ca  2**0
                  CONTENTS, READONLY, DEBUGGING

Disassembly of section .text:

0000f000 <__vectors>:
    f000:	0c 94 3e 78 	jmp	0xf07c	; 0xf07c <__ctors_end>
    f004:	0c 94 5b 78 	jmp	0xf0b6	; 0xf0b6 <__bad_interrupt>
    f008:	0c 94 5b 78 	jmp	0xf0b6	; 0xf0b6 <__bad_interrupt>
    f00c:	0c 94 5b 78 	jmp	0xf0b6	; 0xf0b6 <__bad_interrupt>
    f010:	0c 94 5b 78 	jmp	0xf0b6	; 0xf0b6 <__bad_interrupt>
    f014:	0c 94 5b 78 	jmp	0xf0b6	; 0xf0b6 <__bad_interrupt>
    f018:	0c 94 5b 78 	jmp	0xf0b6	; 0xf0b6 <__bad_interrupt>
    f01c:	0c 94 5b 78 	jmp	0xf0b6	; 0xf0b6 <__bad_interrupt>
    f020:	0c 94 5b 78 	jmp	0xf0b6	; 0xf0b6 <__bad_interrupt>
    f024:	0c 94 5b 78 	jmp	0xf0b6	; 0xf0b6 <__bad_interrupt>
    f028:	0c 94 5b 78 	jmp	0xf0b6	; 0xf0b6 <__bad_interrupt>
    f02c:	0c 94 5b 78 	jmp	0xf0b6	; 0xf0b6 <__bad_interrupt>
    f030:	0c 94 5b 78 	jmp	0xf0b6	; 0xf0b6 <__bad_interrupt>
    f034:	0c 94 5b 78 	jmp	0xf0b6	; 0xf0b6 <__bad_interrupt>
    f038:	0c 94 5b 78 	jmp	0xf0b6	; 0xf0b6 <__bad_interrupt>
    f03c:	0c 94 5b 78 	jmp	0xf0b6	; 0xf0b6 <__bad_interrupt>
    f040:	0c 94 5b 78 	jmp	0xf0b6	; 0xf0b6 <__bad_interrupt>
    f044:	0c 94 5b 78 	jmp	0xf0b6	; 0xf0b6 <__bad_interrupt>
    f048:	0c 94 5b 78 	jmp	0xf0b6	; 0xf0b6 <__bad_interrupt>
    f04c:	0c 94 5b 78 	jmp	0xf0b6	; 0xf0b6 <__bad_interrupt>
    f050:	0c 94 c2 7a 	jmp	0xf584	; 0xf584 <__vector_20>
    f054:	0c 94 5b 78 	jmp	0xf0b6	; 0xf0b6 <__bad_interrupt>
    f058:	0c 94 5b 78 	jmp	0xf0b6	; 0xf0b6 <__bad_interrupt>
    f05c:	0c 94 5b 78 	jmp	0xf0b6	; 0xf0b6 <__bad_interrupt>
    f060:	0c 94 5b 78 	jmp	0xf0b6	; 0xf0b6 <__bad_interrupt>
    f064:	0c 94 5b 78 	jmp	0xf0b6	; 0xf0b6 <__bad_interrupt>
    f068:	0c 94 5b 78 	jmp	0xf0b6	; 0xf0b6 <__bad_interrupt>
    f06c:	0c 94 5b 78 	jmp	0xf0b6	; 0xf0b6 <__bad_interrupt>
    f070:	0c 94 5b 78 	jmp	0xf0b6	; 0xf0b6 <__bad_interrupt>
    f074:	0c 94 5b 78 	jmp	0xf0b6	; 0xf0b6 <__bad_interrupt>
    f078:	0c 94 5b 78 	jmp	0xf0b6	; 0xf0b6 <__bad_interrupt>

0000f07c <__ctors_end>:
    f07c:	11 24       	eor	r1, r1
    f07e:	1f be       	out	0x3f, r1	; 63
    f080:	cf ef       	ldi	r28, 0xFF	; 255
    f082:	d0 e1       	ldi	r29, 0x10	; 16
    f084:	de bf       	out	0x3e, r29	; 62
    f086:	cd bf       	out	0x3d, r28	; 61

0000f088 <__do_copy_data>:
    f088:	12 e0       	ldi	r17, 0x02	; 2
    f08a:	a0 e0       	ldi	r26, 0x00	; 0
    f08c:	b1 e0       	ldi	r27, 0x01	; 1
    f08e:	e4 e7       	ldi	r30, 0x74	; 116
    f090:	f9 ef       	ldi	r31, 0xF9	; 249
    f092:	02 c0       	rjmp	.+4      	; 0xf098 <__do_copy_data+0x10>
    f094:	05 90       	lpm	r0, Z+
    f096:	0d 92       	st	X+, r0
    f098:	a2 36       	cpi	r26, 0x62	; 98
    f09a:	b1 07       	cpc	r27, r17
    f09c:	d9 f7       	brne	.-10     	; 0xf094 <__do_copy_data+0xc>

0000f09e <__do_clear_bss>:
    f09e:	22 e0       	ldi	r18, 0x02	; 2
    f0a0:	a2 e6       	ldi	r26, 0x62	; 98
    f0a2:	b2 e0       	ldi	r27, 0x02	; 2
    f0a4:	01 c0       	rjmp	.+2      	; 0xf0a8 <.do_clear_bss_start>

0000f0a6 <.do_clear_bss_loop>:
    f0a6:	1d 92       	st	X+, r1

0000f0a8 <.do_clear_bss_start>:
    f0a8:	af 3c       	cpi	r26, 0xCF	; 207
    f0aa:	b2 07       	cpc	r27, r18
    f0ac:	e1 f7       	brne	.-8      	; 0xf0a6 <.do_clear_bss_loop>
    f0ae:	0e 94 17 7a 	call	0xf42e	; 0xf42e <main>
    f0b2:	0c 94 b8 7c 	jmp	0xf970	; 0xf970 <_exit>

0000f0b6 <__bad_interrupt>:
    f0b6:	0c 94 00 78 	jmp	0xf000	; 0xf000 <__vectors>

0000f0ba <LCD_Action>:
{
	while (!(UCSR0A & (1<<RXC0)))
	;   
	
	return UDR0;												
}
    f0ba:	98 b1       	in	r25, 0x08	; 8
    f0bc:	9f 70       	andi	r25, 0x0F	; 15
    f0be:	28 2f       	mov	r18, r24
    f0c0:	20 7f       	andi	r18, 0xF0	; 240
    f0c2:	92 2b       	or	r25, r18
    f0c4:	98 b9       	out	0x08, r25	; 8
    f0c6:	42 98       	cbi	0x08, 2	; 8
    f0c8:	43 9a       	sbi	0x08, 3	; 8
    f0ca:	36 e0       	ldi	r19, 0x06	; 6
    f0cc:	3a 95       	dec	r19
    f0ce:	f1 f7       	brne	.-4      	; 0xf0cc <LCD_Action+0x12>
    f0d0:	00 c0       	rjmp	.+0      	; 0xf0d2 <LCD_Action+0x18>
    f0d2:	43 98       	cbi	0x08, 3	; 8
    f0d4:	9d e0       	ldi	r25, 0x0D	; 13
    f0d6:	9a 95       	dec	r25
    f0d8:	f1 f7       	brne	.-4      	; 0xf0d6 <LCD_Action+0x1c>
    f0da:	00 00       	nop
    f0dc:	28 b1       	in	r18, 0x08	; 8
    f0de:	2f 70       	andi	r18, 0x0F	; 15
    f0e0:	30 e1       	ldi	r19, 0x10	; 16
    f0e2:	83 9f       	mul	r24, r19
    f0e4:	c0 01       	movw	r24, r0
    f0e6:	11 24       	eor	r1, r1
    f0e8:	82 2b       	or	r24, r18
    f0ea:	88 b9       	out	0x08, r24	; 8
    f0ec:	43 9a       	sbi	0x08, 3	; 8
    f0ee:	86 e0       	ldi	r24, 0x06	; 6
    f0f0:	8a 95       	dec	r24
    f0f2:	f1 f7       	brne	.-4      	; 0xf0f0 <LCD_Action+0x36>
    f0f4:	00 c0       	rjmp	.+0      	; 0xf0f6 <LCD_Action+0x3c>
    f0f6:	43 98       	cbi	0x08, 3	; 8
    f0f8:	8f e0       	ldi	r24, 0x0F	; 15
    f0fa:	97 e2       	ldi	r25, 0x27	; 39
    f0fc:	01 97       	sbiw	r24, 0x01	; 1
    f0fe:	f1 f7       	brne	.-4      	; 0xf0fc <LCD_Action+0x42>
    f100:	00 c0       	rjmp	.+0      	; 0xf102 <LCD_Action+0x48>
    f102:	00 00       	nop
    f104:	08 95       	ret

0000f106 <LCD_Init>:
    f106:	2f e5       	ldi	r18, 0x5F	; 95
    f108:	8a ee       	ldi	r24, 0xEA	; 234
    f10a:	90 e0       	ldi	r25, 0x00	; 0
    f10c:	21 50       	subi	r18, 0x01	; 1
    f10e:	80 40       	sbci	r24, 0x00	; 0
    f110:	90 40       	sbci	r25, 0x00	; 0
    f112:	e1 f7       	brne	.-8      	; 0xf10c <LCD_Init+0x6>
    f114:	00 c0       	rjmp	.+0      	; 0xf116 <LCD_Init+0x10>
    f116:	00 00       	nop
    f118:	82 e0       	ldi	r24, 0x02	; 2
    f11a:	0e 94 5d 78 	call	0xf0ba	; 0xf0ba <LCD_Action>
    f11e:	88 e2       	ldi	r24, 0x28	; 40
    f120:	0e 94 5d 78 	call	0xf0ba	; 0xf0ba <LCD_Action>
    f124:	8c e0       	ldi	r24, 0x0C	; 12
    f126:	0e 94 5d 78 	call	0xf0ba	; 0xf0ba <LCD_Action>
    f12a:	86 e0       	ldi	r24, 0x06	; 6
    f12c:	0e 94 5d 78 	call	0xf0ba	; 0xf0ba <LCD_Action>
    f130:	81 e0       	ldi	r24, 0x01	; 1
    f132:	0e 94 5d 78 	call	0xf0ba	; 0xf0ba <LCD_Action>
    f136:	8f e0       	ldi	r24, 0x0F	; 15
    f138:	97 e2       	ldi	r25, 0x27	; 39
    f13a:	01 97       	sbiw	r24, 0x01	; 1
    f13c:	f1 f7       	brne	.-4      	; 0xf13a <LCD_Init+0x34>
    f13e:	00 c0       	rjmp	.+0      	; 0xf140 <LCD_Init+0x3a>
    f140:	00 00       	nop
    f142:	08 95       	ret

0000f144 <LCD_Print>:
    f144:	fc 01       	movw	r30, r24
    f146:	90 81       	ld	r25, Z
    f148:	99 23       	and	r25, r25
    f14a:	49 f1       	breq	.+82     	; 0xf19e <LCD_Print+0x5a>
    f14c:	28 b1       	in	r18, 0x08	; 8
    f14e:	2f 70       	andi	r18, 0x0F	; 15
    f150:	90 7f       	andi	r25, 0xF0	; 240
    f152:	92 2b       	or	r25, r18
    f154:	98 b9       	out	0x08, r25	; 8
    f156:	42 9a       	sbi	0x08, 2	; 8
    f158:	43 9a       	sbi	0x08, 3	; 8
    f15a:	82 e4       	ldi	r24, 0x42	; 66
    f15c:	8a 95       	dec	r24
    f15e:	f1 f7       	brne	.-4      	; 0xf15c <LCD_Print+0x18>
    f160:	00 c0       	rjmp	.+0      	; 0xf162 <LCD_Print+0x1e>
    f162:	43 98       	cbi	0x08, 3	; 8
    f164:	95 e8       	ldi	r25, 0x85	; 133
    f166:	9a 95       	dec	r25
    f168:	f1 f7       	brne	.-4      	; 0xf166 <LCD_Print+0x22>
    f16a:	00 00       	nop
    f16c:	48 b1       	in	r20, 0x08	; 8
    f16e:	91 91       	ld	r25, Z+
    f170:	80 e1       	ldi	r24, 0x10	; 16
    f172:	98 9f       	mul	r25, r24
    f174:	90 01       	movw	r18, r0
    f176:	11 24       	eor	r1, r1
    f178:	94 2f       	mov	r25, r20
    f17a:	9f 70       	andi	r25, 0x0F	; 15
    f17c:	29 2b       	or	r18, r25
    f17e:	28 b9       	out	0x08, r18	; 8
    f180:	43 9a       	sbi	0x08, 3	; 8
    f182:	92 e4       	ldi	r25, 0x42	; 66
    f184:	9a 95       	dec	r25
    f186:	f1 f7       	brne	.-4      	; 0xf184 <LCD_Print+0x40>
    f188:	00 c0       	rjmp	.+0      	; 0xf18a <LCD_Print+0x46>
    f18a:	43 98       	cbi	0x08, 3	; 8
    f18c:	89 ef       	ldi	r24, 0xF9	; 249
    f18e:	90 e0       	ldi	r25, 0x00	; 0
    f190:	01 97       	sbiw	r24, 0x01	; 1
    f192:	f1 f7       	brne	.-4      	; 0xf190 <LCD_Print+0x4c>
    f194:	00 c0       	rjmp	.+0      	; 0xf196 <LCD_Print+0x52>
    f196:	00 00       	nop
    f198:	90 81       	ld	r25, Z
    f19a:	91 11       	cpse	r25, r1
    f19c:	d7 cf       	rjmp	.-82     	; 0xf14c <LCD_Print+0x8>
    f19e:	08 95       	ret

0000f1a0 <SPI_MasterInit>:
    f1a0:	8c b5       	in	r24, 0x2c	; 44
    f1a2:	8d 65       	ori	r24, 0x5D	; 93
    f1a4:	8c bd       	out	0x2c, r24	; 44
    f1a6:	8c b5       	in	r24, 0x2c	; 44
    f1a8:	83 60       	ori	r24, 0x03	; 3
    f1aa:	8c bd       	out	0x2c, r24	; 44
    f1ac:	8c b5       	in	r24, 0x2c	; 44
    f1ae:	8f 7d       	andi	r24, 0xDF	; 223
    f1b0:	8c bd       	out	0x2c, r24	; 44
    f1b2:	8c b5       	in	r24, 0x2c	; 44
    f1b4:	8f 77       	andi	r24, 0x7F	; 127
    f1b6:	8c bd       	out	0x2c, r24	; 44
    f1b8:	2c 9a       	sbi	0x05, 4	; 5
    f1ba:	2b 9a       	sbi	0x05, 3	; 5
    f1bc:	08 95       	ret

0000f1be <SPI_SRAM_ByteWrite>:
    f1be:	cf 92       	push	r12
    f1c0:	df 92       	push	r13
    f1c2:	ef 92       	push	r14
    f1c4:	ff 92       	push	r15
    f1c6:	0f 93       	push	r16
    f1c8:	1f 93       	push	r17
    f1ca:	6c 01       	movw	r12, r24
    f1cc:	ee 24       	eor	r14, r14
    f1ce:	ff 24       	eor	r15, r15
    f1d0:	07 2f       	mov	r16, r23
    f1d2:	18 2f       	mov	r17, r24
    f1d4:	29 2f       	mov	r18, r25
    f1d6:	33 27       	eor	r19, r19
    f1d8:	29 98       	cbi	0x05, 1	; 5
    f1da:	52 e0       	ldi	r21, 0x02	; 2
    f1dc:	5e bd       	out	0x2e, r21	; 46
    f1de:	0d b4       	in	r0, 0x2d	; 45
    f1e0:	07 fe       	sbrs	r0, 7
    f1e2:	fd cf       	rjmp	.-6      	; 0xf1de <SPI_SRAM_ByteWrite+0x20>
    f1e4:	ce bc       	out	0x2e, r12	; 46
    f1e6:	0d b4       	in	r0, 0x2d	; 45
    f1e8:	07 fe       	sbrs	r0, 7
    f1ea:	fd cf       	rjmp	.-6      	; 0xf1e6 <SPI_SRAM_ByteWrite+0x28>
    f1ec:	0e bd       	out	0x2e, r16	; 46
    f1ee:	0d b4       	in	r0, 0x2d	; 45
    f1f0:	07 fe       	sbrs	r0, 7
    f1f2:	fd cf       	rjmp	.-6      	; 0xf1ee <SPI_SRAM_ByteWrite+0x30>
    f1f4:	6e bd       	out	0x2e, r22	; 46
    f1f6:	0d b4       	in	r0, 0x2d	; 45
    f1f8:	07 fe       	sbrs	r0, 7
    f1fa:	fd cf       	rjmp	.-6      	; 0xf1f6 <SPI_SRAM_ByteWrite+0x38>
    f1fc:	4e bd       	out	0x2e, r20	; 46
    f1fe:	0d b4       	in	r0, 0x2d	; 45
    f200:	07 fe       	sbrs	r0, 7
    f202:	fd cf       	rjmp	.-6      	; 0xf1fe <SPI_SRAM_ByteWrite+0x40>
    f204:	29 9a       	sbi	0x05, 1	; 5
    f206:	1f 91       	pop	r17
    f208:	0f 91       	pop	r16
    f20a:	ff 90       	pop	r15
    f20c:	ef 90       	pop	r14
    f20e:	df 90       	pop	r13
    f210:	cf 90       	pop	r12
    f212:	08 95       	ret

0000f214 <SPI_SRAM_ByteRead>:
    f214:	cf 92       	push	r12
    f216:	df 92       	push	r13
    f218:	ef 92       	push	r14
    f21a:	ff 92       	push	r15
    f21c:	0f 93       	push	r16
    f21e:	1f 93       	push	r17
    f220:	6c 01       	movw	r12, r24
    f222:	ee 24       	eor	r14, r14
    f224:	ff 24       	eor	r15, r15
    f226:	07 2f       	mov	r16, r23
    f228:	18 2f       	mov	r17, r24
    f22a:	29 2f       	mov	r18, r25
    f22c:	33 27       	eor	r19, r19
    f22e:	29 98       	cbi	0x05, 1	; 5
    f230:	43 e0       	ldi	r20, 0x03	; 3
    f232:	4e bd       	out	0x2e, r20	; 46
    f234:	0d b4       	in	r0, 0x2d	; 45
    f236:	07 fe       	sbrs	r0, 7
    f238:	fd cf       	rjmp	.-6      	; 0xf234 <SPI_SRAM_ByteRead+0x20>
    f23a:	ce bc       	out	0x2e, r12	; 46
    f23c:	0d b4       	in	r0, 0x2d	; 45
    f23e:	07 fe       	sbrs	r0, 7
    f240:	fd cf       	rjmp	.-6      	; 0xf23c <SPI_SRAM_ByteRead+0x28>
    f242:	0e bd       	out	0x2e, r16	; 46
    f244:	0d b4       	in	r0, 0x2d	; 45
    f246:	07 fe       	sbrs	r0, 7
    f248:	fd cf       	rjmp	.-6      	; 0xf244 <SPI_SRAM_ByteRead+0x30>
    f24a:	6e bd       	out	0x2e, r22	; 46
    f24c:	0d b4       	in	r0, 0x2d	; 45
    f24e:	07 fe       	sbrs	r0, 7
    f250:	fd cf       	rjmp	.-6      	; 0xf24c <SPI_SRAM_ByteRead+0x38>
    f252:	8f ef       	ldi	r24, 0xFF	; 255
    f254:	8e bd       	out	0x2e, r24	; 46
    f256:	0d b4       	in	r0, 0x2d	; 45
    f258:	07 fe       	sbrs	r0, 7
    f25a:	fd cf       	rjmp	.-6      	; 0xf256 <SPI_SRAM_ByteRead+0x42>
    f25c:	8e b5       	in	r24, 0x2e	; 46
    f25e:	29 9a       	sbi	0x05, 1	; 5
    f260:	1f 91       	pop	r17
    f262:	0f 91       	pop	r16
    f264:	ff 90       	pop	r15
    f266:	ef 90       	pop	r14
    f268:	df 90       	pop	r13
    f26a:	cf 90       	pop	r12
    f26c:	08 95       	ret

0000f26e <USART_Init>:
    f26e:	90 93 c5 00 	sts	0x00C5, r25	; 0x8000c5 <__TEXT_REGION_LENGTH__+0x7f00c5>
    f272:	80 93 c4 00 	sts	0x00C4, r24	; 0x8000c4 <__TEXT_REGION_LENGTH__+0x7f00c4>
    f276:	e1 ec       	ldi	r30, 0xC1	; 193
    f278:	f0 e0       	ldi	r31, 0x00	; 0
    f27a:	80 81       	ld	r24, Z
    f27c:	88 60       	ori	r24, 0x08	; 8
    f27e:	80 83       	st	Z, r24
    f280:	80 81       	ld	r24, Z
    f282:	80 61       	ori	r24, 0x10	; 16
    f284:	80 83       	st	Z, r24
    f286:	80 81       	ld	r24, Z
    f288:	80 68       	ori	r24, 0x80	; 128
    f28a:	80 83       	st	Z, r24
    f28c:	a0 ec       	ldi	r26, 0xC0	; 192
    f28e:	b0 e0       	ldi	r27, 0x00	; 0
    f290:	8c 91       	ld	r24, X
    f292:	80 68       	ori	r24, 0x80	; 128
    f294:	8c 93       	st	X, r24
    f296:	8e e0       	ldi	r24, 0x0E	; 14
    f298:	80 93 c2 00 	sts	0x00C2, r24	; 0x8000c2 <__TEXT_REGION_LENGTH__+0x7f00c2>
    f29c:	80 81       	ld	r24, Z
    f29e:	80 69       	ori	r24, 0x90	; 144
    f2a0:	80 83       	st	Z, r24
    f2a2:	83 b7       	in	r24, 0x33	; 51
    f2a4:	81 7f       	andi	r24, 0xF1	; 241
    f2a6:	83 bf       	out	0x33, r24	; 51
    f2a8:	08 95       	ret

0000f2aa <USART_transmit_string>:
    f2aa:	cf 93       	push	r28
    f2ac:	df 93       	push	r29
    f2ae:	dc 01       	movw	r26, r24
    f2b0:	ec 01       	movw	r28, r24
    f2b2:	20 e0       	ldi	r18, 0x00	; 0
    f2b4:	30 e0       	ldi	r19, 0x00	; 0
    f2b6:	fd 01       	movw	r30, r26
    f2b8:	01 90       	ld	r0, Z+
    f2ba:	00 20       	and	r0, r0
    f2bc:	e9 f7       	brne	.-6      	; 0xf2b8 <USART_transmit_string+0xe>
    f2be:	31 97       	sbiw	r30, 0x01	; 1
    f2c0:	ea 1b       	sub	r30, r26
    f2c2:	fb 0b       	sbc	r31, r27
    f2c4:	e2 17       	cp	r30, r18
    f2c6:	f3 07       	cpc	r31, r19
    f2c8:	51 f0       	breq	.+20     	; 0xf2de <USART_transmit_string+0x34>
    f2ca:	89 91       	ld	r24, Y+
    f2cc:	90 91 c0 00 	lds	r25, 0x00C0	; 0x8000c0 <__TEXT_REGION_LENGTH__+0x7f00c0>
    f2d0:	95 ff       	sbrs	r25, 5
    f2d2:	fc cf       	rjmp	.-8      	; 0xf2cc <USART_transmit_string+0x22>
    f2d4:	80 93 c6 00 	sts	0x00C6, r24	; 0x8000c6 <__TEXT_REGION_LENGTH__+0x7f00c6>
    f2d8:	2f 5f       	subi	r18, 0xFF	; 255
    f2da:	3f 4f       	sbci	r19, 0xFF	; 255
    f2dc:	ec cf       	rjmp	.-40     	; 0xf2b6 <USART_transmit_string+0xc>
    f2de:	df 91       	pop	r29
    f2e0:	cf 91       	pop	r28
    f2e2:	08 95       	ret

0000f2e4 <write_firmware_to_flash>:




void write_firmware_to_flash()
{
    f2e4:	6f 92       	push	r6
    f2e6:	7f 92       	push	r7
    f2e8:	8f 92       	push	r8
    f2ea:	9f 92       	push	r9
    f2ec:	af 92       	push	r10
    f2ee:	bf 92       	push	r11
    f2f0:	cf 92       	push	r12
    f2f2:	df 92       	push	r13
    f2f4:	ef 92       	push	r14
    f2f6:	ff 92       	push	r15
    f2f8:	0f 93       	push	r16
    f2fa:	1f 93       	push	r17
    f2fc:	cf 93       	push	r28
    f2fe:	df 93       	push	r29
	
	uint32_t sram_address = 0;
	uint32_t flash_address = 0;
    const uint32_t app_section_eof = 61440; //next address is bootloader-section!!!
	cli();
    f300:	f8 94       	cli
	 boot_rww_enable();
    f302:	81 e1       	ldi	r24, 0x11	; 17
    f304:	80 93 57 00 	sts	0x0057, r24	; 0x800057 <__TEXT_REGION_LENGTH__+0x7f0057>
    f308:	e8 95       	spm

void write_firmware_to_flash()
{
	
	uint32_t sram_address = 0;
	uint32_t flash_address = 0;
    f30a:	c1 2c       	mov	r12, r1
    f30c:	d1 2c       	mov	r13, r1
    f30e:	76 01       	movw	r14, r12
     
    
     
	 while(sram_address < app_section_eof ){  //write complete app section
		
		boot_page_erase_safe(sram_address) ;
    f310:	03 e0       	ldi	r16, 0x03	; 3
		
		for(int i = 0; i < 128; ++i){
			uint16_t lsb =  SPI_SRAM_ByteRead(sram_address);
			uint8_t msb =  SPI_SRAM_ByteRead(sram_address + 1 );
			uint16_t data = (msb << 8)  | lsb;
			boot_page_fill_safe(sram_address, data);
    f312:	d1 e0       	ldi	r29, 0x01	; 1
			sram_address += 2;
		}
		
		
			boot_page_write_safe(flash_address);
    f314:	15 e0       	ldi	r17, 0x05	; 5
     
    
     
	 while(sram_address < app_section_eof ){  //write complete app section
		
		boot_page_erase_safe(sram_address) ;
    f316:	07 b6       	in	r0, 0x37	; 55
    f318:	00 fc       	sbrc	r0, 0
    f31a:	fd cf       	rjmp	.-6      	; 0xf316 <write_firmware_to_flash+0x32>
    f31c:	f9 99       	sbic	0x1f, 1	; 31
    f31e:	fe cf       	rjmp	.-4      	; 0xf31c <write_firmware_to_flash+0x38>
    f320:	36 01       	movw	r6, r12
    f322:	f6 01       	movw	r30, r12
    f324:	00 93 57 00 	sts	0x0057, r16	; 0x800057 <__TEXT_REGION_LENGTH__+0x7f0057>
    f328:	e8 95       	spm
		boot_spm_busy_wait();  
    f32a:	07 b6       	in	r0, 0x37	; 55
    f32c:	00 fc       	sbrc	r0, 0
    f32e:	fd cf       	rjmp	.-6      	; 0xf32a <write_firmware_to_flash+0x46>
    f330:	46 01       	movw	r8, r12
    f332:	57 01       	movw	r10, r14
    f334:	ff ef       	ldi	r31, 0xFF	; 255
    f336:	9f 1a       	sub	r9, r31
    f338:	af 0a       	sbc	r10, r31
    f33a:	bf 0a       	sbc	r11, r31
		
		for(int i = 0; i < 128; ++i){
			uint16_t lsb =  SPI_SRAM_ByteRead(sram_address);
    f33c:	c7 01       	movw	r24, r14
    f33e:	b6 01       	movw	r22, r12
    f340:	0e 94 0a 79 	call	0xf214	; 0xf214 <SPI_SRAM_ByteRead>
    f344:	c8 2f       	mov	r28, r24
			uint8_t msb =  SPI_SRAM_ByteRead(sram_address + 1 );
    f346:	c7 01       	movw	r24, r14
    f348:	b6 01       	movw	r22, r12
    f34a:	6f 5f       	subi	r22, 0xFF	; 255
    f34c:	7f 4f       	sbci	r23, 0xFF	; 255
    f34e:	8f 4f       	sbci	r24, 0xFF	; 255
    f350:	9f 4f       	sbci	r25, 0xFF	; 255
    f352:	0e 94 0a 79 	call	0xf214	; 0xf214 <SPI_SRAM_ByteRead>
			uint16_t data = (msb << 8)  | lsb;
    f356:	2c 2f       	mov	r18, r28
    f358:	30 e0       	ldi	r19, 0x00	; 0
    f35a:	a9 01       	movw	r20, r18
    f35c:	58 2b       	or	r21, r24
    f35e:	ca 01       	movw	r24, r20
			boot_page_fill_safe(sram_address, data);
    f360:	07 b6       	in	r0, 0x37	; 55
    f362:	00 fc       	sbrc	r0, 0
    f364:	fd cf       	rjmp	.-6      	; 0xf360 <write_firmware_to_flash+0x7c>
    f366:	f9 99       	sbic	0x1f, 1	; 31
    f368:	fe cf       	rjmp	.-4      	; 0xf366 <write_firmware_to_flash+0x82>
    f36a:	f6 01       	movw	r30, r12
    f36c:	0c 01       	movw	r0, r24
    f36e:	d0 93 57 00 	sts	0x0057, r29	; 0x800057 <__TEXT_REGION_LENGTH__+0x7f0057>
    f372:	e8 95       	spm
    f374:	11 24       	eor	r1, r1
			sram_address += 2;
    f376:	f2 e0       	ldi	r31, 0x02	; 2
    f378:	cf 0e       	add	r12, r31
    f37a:	d1 1c       	adc	r13, r1
    f37c:	e1 1c       	adc	r14, r1
    f37e:	f1 1c       	adc	r15, r1
	 while(sram_address < app_section_eof ){  //write complete app section
		
		boot_page_erase_safe(sram_address) ;
		boot_spm_busy_wait();  
		
		for(int i = 0; i < 128; ++i){
    f380:	8c 14       	cp	r8, r12
    f382:	9d 04       	cpc	r9, r13
    f384:	ae 04       	cpc	r10, r14
    f386:	bf 04       	cpc	r11, r15
    f388:	c9 f6       	brne	.-78     	; 0xf33c <write_firmware_to_flash+0x58>
			boot_page_fill_safe(sram_address, data);
			sram_address += 2;
		}
		
		
			boot_page_write_safe(flash_address);
    f38a:	07 b6       	in	r0, 0x37	; 55
    f38c:	00 fc       	sbrc	r0, 0
    f38e:	fd cf       	rjmp	.-6      	; 0xf38a <write_firmware_to_flash+0xa6>
    f390:	f9 99       	sbic	0x1f, 1	; 31
    f392:	fe cf       	rjmp	.-4      	; 0xf390 <write_firmware_to_flash+0xac>
    f394:	f3 01       	movw	r30, r6
    f396:	10 93 57 00 	sts	0x0057, r17	; 0x800057 <__TEXT_REGION_LENGTH__+0x7f0057>
    f39a:	e8 95       	spm
			boot_spm_busy_wait();  
    f39c:	07 b6       	in	r0, 0x37	; 55
    f39e:	00 fc       	sbrc	r0, 0
    f3a0:	fd cf       	rjmp	.-6      	; 0xf39c <write_firmware_to_flash+0xb8>
	cli();
	 boot_rww_enable();
     
    
     
	 while(sram_address < app_section_eof ){  //write complete app section
    f3a2:	81 14       	cp	r8, r1
    f3a4:	f0 ef       	ldi	r31, 0xF0	; 240
    f3a6:	9f 06       	cpc	r9, r31
    f3a8:	a1 04       	cpc	r10, r1
    f3aa:	b1 04       	cpc	r11, r1
    f3ac:	19 f0       	breq	.+6      	; 0xf3b4 <write_firmware_to_flash+0xd0>
    f3ae:	75 01       	movw	r14, r10
    f3b0:	64 01       	movw	r12, r8
    f3b2:	b1 cf       	rjmp	.-158    	; 0xf316 <write_firmware_to_flash+0x32>
			flash_address += 256;
		
	}
	
	
		boot_rww_enable ();
    f3b4:	81 e1       	ldi	r24, 0x11	; 17
    f3b6:	80 93 57 00 	sts	0x0057, r24	; 0x800057 <__TEXT_REGION_LENGTH__+0x7f0057>
    f3ba:	e8 95       	spm
	#else
		//round up by default
		__ticks_dc = (uint32_t)(ceil(fabs(__tmp)));
	#endif

	__builtin_avr_delay_cycles(__ticks_dc);
    f3bc:	2f e7       	ldi	r18, 0x7F	; 127
    f3be:	4a e1       	ldi	r20, 0x1A	; 26
    f3c0:	56 e0       	ldi	r21, 0x06	; 6
    f3c2:	21 50       	subi	r18, 0x01	; 1
    f3c4:	40 40       	sbci	r20, 0x00	; 0
    f3c6:	50 40       	sbci	r21, 0x00	; 0
    f3c8:	e1 f7       	brne	.-8      	; 0xf3c2 <write_firmware_to_flash+0xde>
    f3ca:	00 c0       	rjmp	.+0      	; 0xf3cc <write_firmware_to_flash+0xe8>
    f3cc:	00 00       	nop
	_delay_ms(2);
}

void LCD_Clear()
{
	LCD_Action (0x01);		//Clear LCD
    f3ce:	81 e0       	ldi	r24, 0x01	; 1
    f3d0:	0e 94 5d 78 	call	0xf0ba	; 0xf0ba <LCD_Action>
	#else
		//round up by default
		__ticks_dc = (uint32_t)(ceil(fabs(__tmp)));
	#endif

	__builtin_avr_delay_cycles(__ticks_dc);
    f3d4:	85 e8       	ldi	r24, 0x85	; 133
    f3d6:	8a 95       	dec	r24
    f3d8:	f1 f7       	brne	.-4      	; 0xf3d6 <write_firmware_to_flash+0xf2>
    f3da:	00 00       	nop
	_delay_us(20);
	LCD_Action (0x80);		//Move to Position Line 1, Position 1
    f3dc:	80 e8       	ldi	r24, 0x80	; 128
    f3de:	0e 94 5d 78 	call	0xf0ba	; 0xf0ba <LCD_Action>


void LCD_Printpos (char row, char pos, char *str)  //Write on a specific location
{
	if (row == 0 && pos<16)
		LCD_Action((pos & 0x0F)|0x80);
    f3e2:	80 e8       	ldi	r24, 0x80	; 128
    f3e4:	0e 94 5d 78 	call	0xf0ba	; 0xf0ba <LCD_Action>
	else if (row == 1 && pos<16)
		LCD_Action((pos & 0x0F)|0xC0);
	
	LCD_Print(str);
    f3e8:	86 e0       	ldi	r24, 0x06	; 6
    f3ea:	91 e0       	ldi	r25, 0x01	; 1
    f3ec:	0e 94 a2 78 	call	0xf144	; 0xf144 <LCD_Print>
void LCD_Printpos (char row, char pos, char *str)  //Write on a specific location
{
	if (row == 0 && pos<16)
		LCD_Action((pos & 0x0F)|0x80);
	else if (row == 1 && pos<16)
		LCD_Action((pos & 0x0F)|0xC0);
    f3f0:	80 ec       	ldi	r24, 0xC0	; 192
    f3f2:	0e 94 5d 78 	call	0xf0ba	; 0xf0ba <LCD_Action>
	
	LCD_Print(str);
    f3f6:	85 e1       	ldi	r24, 0x15	; 21
    f3f8:	91 e0       	ldi	r25, 0x01	; 1
    f3fa:	0e 94 a2 78 	call	0xf144	; 0xf144 <LCD_Print>
	#else
		//round up by default
		__ticks_dc = (uint32_t)(ceil(fabs(__tmp)));
	#endif

	__builtin_avr_delay_cycles(__ticks_dc);
    f3fe:	9f ef       	ldi	r25, 0xFF	; 255
    f400:	e8 e0       	ldi	r30, 0x08	; 8
    f402:	fd e3       	ldi	r31, 0x3D	; 61
    f404:	91 50       	subi	r25, 0x01	; 1
    f406:	e0 40       	sbci	r30, 0x00	; 0
    f408:	f0 40       	sbci	r31, 0x00	; 0
    f40a:	e1 f7       	brne	.-8      	; 0xf404 <write_firmware_to_flash+0x120>
    f40c:	00 c0       	rjmp	.+0      	; 0xf40e <write_firmware_to_flash+0x12a>
    f40e:	00 00       	nop
		
		
	
	
 
}
    f410:	df 91       	pop	r29
    f412:	cf 91       	pop	r28
    f414:	1f 91       	pop	r17
    f416:	0f 91       	pop	r16
    f418:	ff 90       	pop	r15
    f41a:	ef 90       	pop	r14
    f41c:	df 90       	pop	r13
    f41e:	cf 90       	pop	r12
    f420:	bf 90       	pop	r11
    f422:	af 90       	pop	r10
    f424:	9f 90       	pop	r9
    f426:	8f 90       	pop	r8
    f428:	7f 90       	pop	r7
    f42a:	6f 90       	pop	r6
    f42c:	08 95       	ret

0000f42e <main>:
	
	
	
	
	//SET ATMEGA PORTS/PINS TO IN- OR OUTPUTS
	PINA = 0x00;
    f42e:	10 b8       	out	0x00, r1	; 0
	DDRA = 0x0f;
    f430:	8f e0       	ldi	r24, 0x0F	; 15
    f432:	81 b9       	out	0x01, r24	; 1
	PORTA = 0x00;
    f434:	12 b8       	out	0x02, r1	; 2
	DDRB = 0xbe;
    f436:	8e eb       	ldi	r24, 0xBE	; 190
    f438:	84 b9       	out	0x04, r24	; 4
	DDRD = 0x7e;
    f43a:	8e e7       	ldi	r24, 0x7E	; 126
    f43c:	8a b9       	out	0x0a, r24	; 10
	//PORTD = 0x01; //internal pull-up rx-pin
	DDRC = 0xfe;
    f43e:	8e ef       	ldi	r24, 0xFE	; 254
    f440:	87 b9       	out	0x07, r24	; 7
	PORTB = 0xbf;
    f442:	8f eb       	ldi	r24, 0xBF	; 191
    f444:	85 b9       	out	0x05, r24	; 5
	PORTC = 0x00;
    f446:	18 b8       	out	0x08, r1	; 8
	PORTA = 13;  // set address for record button
    f448:	8d e0       	ldi	r24, 0x0D	; 13
    f44a:	82 b9       	out	0x02, r24	; 2
	
	//INIT INTERFACES 
	USART_Init(21);  // UBRR = (F_CPU/(16*BAUD))-1 
    f44c:	85 e1       	ldi	r24, 0x15	; 21
    f44e:	90 e0       	ldi	r25, 0x00	; 0
    f450:	0e 94 37 79 	call	0xf26e	; 0xf26e <USART_Init>
	SPI_MasterInit();
    f454:	0e 94 d0 78 	call	0xf1a0	; 0xf1a0 <SPI_MasterInit>
	LCD_Init();									
    f458:	0e 94 83 78 	call	0xf106	; 0xf106 <LCD_Init>
    f45c:	2f e7       	ldi	r18, 0x7F	; 127
    f45e:	84 e8       	ldi	r24, 0x84	; 132
    f460:	9e e1       	ldi	r25, 0x1E	; 30
    f462:	21 50       	subi	r18, 0x01	; 1
    f464:	80 40       	sbci	r24, 0x00	; 0
    f466:	90 40       	sbci	r25, 0x00	; 0
    f468:	e1 f7       	brne	.-8      	; 0xf462 <main+0x34>
    f46a:	00 c0       	rjmp	.+0      	; 0xf46c <main+0x3e>
    f46c:	00 00       	nop
	_delay_ms(500);
	
	
	//ACTIVATE INTERRUPT
	
    sei();
    f46e:	78 94       	sei
	
	
	//CHECK IF SRAM IS ONLINE
	
	
	USART_Init(21);
    f470:	85 e1       	ldi	r24, 0x15	; 21
    f472:	90 e0       	ldi	r25, 0x00	; 0
    f474:	0e 94 37 79 	call	0xf26e	; 0xf26e <USART_Init>
	
	
	
	if(rec_button){
    f478:	80 b1       	in	r24, 0x00	; 0
    f47a:	80 71       	andi	r24, 0x10	; 16
    f47c:	80 b9       	out	0x00, r24	; 0
    f47e:	88 23       	and	r24, r24
    f480:	09 f4       	brne	.+2      	; 0xf484 <main+0x56>
    f482:	78 c0       	rjmp	.+240    	; 0xf574 <main+0x146>
		//MAIN LOOP
		
		/* Interrupt Vektoren verbiegen */
		char sregtemp = SREG;
    f484:	9f b7       	in	r25, 0x3f	; 63
		temp = MCUCR;
    f486:	85 b7       	in	r24, 0x35	; 53
		MCUCR = temp | (1<<IVCE);
    f488:	28 2f       	mov	r18, r24
    f48a:	21 60       	ori	r18, 0x01	; 1
    f48c:	25 bf       	out	0x35, r18	; 53
		MCUCR = temp | (1<<IVSEL);
    f48e:	82 60       	ori	r24, 0x02	; 2
    f490:	85 bf       	out	0x35, r24	; 53
		SREG = sregtemp;	
    f492:	9f bf       	out	0x3f, r25	; 63


void LCD_Printpos (char row, char pos, char *str)  //Write on a specific location
{
	if (row == 0 && pos<16)
		LCD_Action((pos & 0x0F)|0x80);
    f494:	80 e8       	ldi	r24, 0x80	; 128
    f496:	0e 94 5d 78 	call	0xf0ba	; 0xf0ba <LCD_Action>
	else if (row == 1 && pos<16)
		LCD_Action((pos & 0x0F)|0xC0);
	
	LCD_Print(str);
    f49a:	85 e2       	ldi	r24, 0x25	; 37
    f49c:	91 e0       	ldi	r25, 0x01	; 1
    f49e:	0e 94 a2 78 	call	0xf144	; 0xf144 <LCD_Print>
void LCD_Printpos (char row, char pos, char *str)  //Write on a specific location
{
	if (row == 0 && pos<16)
		LCD_Action((pos & 0x0F)|0x80);
	else if (row == 1 && pos<16)
		LCD_Action((pos & 0x0F)|0xC0);
    f4a2:	80 ec       	ldi	r24, 0xC0	; 192
    f4a4:	0e 94 5d 78 	call	0xf0ba	; 0xf0ba <LCD_Action>
	
	LCD_Print(str);
    f4a8:	89 e3       	ldi	r24, 0x39	; 57
    f4aa:	91 e0       	ldi	r25, 0x01	; 1
    f4ac:	0e 94 a2 78 	call	0xf144	; 0xf144 <LCD_Print>
    f4b0:	08 c0       	rjmp	.+16     	; 0xf4c2 <main+0x94>
			
			}
           
			
			//UPDATE CALL EVALUATION
			if(strcmp(update_array, update_call) == 0){  //if call is correct, response will be sent
    f4b2:	60 e0       	ldi	r22, 0x00	; 0
    f4b4:	71 e0       	ldi	r23, 0x01	; 1
    f4b6:	8f ea       	ldi	r24, 0xAF	; 175
    f4b8:	92 e0       	ldi	r25, 0x02	; 2
    f4ba:	0e 94 af 7c 	call	0xf95e	; 0xf95e <strcmp>
    f4be:	89 2b       	or	r24, r25
    f4c0:	a1 f1       	breq	.+104    	; 0xf52a <main+0xfc>
		while(1)  //main loop
		{
				
			
			//HANDSHAKE CALL EVALUATION
			if(strcmp(handshake_array, handshake_call) == 0){  //if call is correct, response will be sent
    f4c2:	60 e5       	ldi	r22, 0x50	; 80
    f4c4:	72 e0       	ldi	r23, 0x02	; 2
    f4c6:	85 eb       	ldi	r24, 0xB5	; 181
    f4c8:	92 e0       	ldi	r25, 0x02	; 2
    f4ca:	0e 94 af 7c 	call	0xf95e	; 0xf95e <strcmp>
    f4ce:	89 2b       	or	r24, r25
    f4d0:	81 f7       	brne	.-32     	; 0xf4b2 <main+0x84>
    f4d2:	2f ef       	ldi	r18, 0xFF	; 255
    f4d4:	84 e3       	ldi	r24, 0x34	; 52
    f4d6:	9c e0       	ldi	r25, 0x0C	; 12
    f4d8:	21 50       	subi	r18, 0x01	; 1
    f4da:	80 40       	sbci	r24, 0x00	; 0
    f4dc:	90 40       	sbci	r25, 0x00	; 0
    f4de:	e1 f7       	brne	.-8      	; 0xf4d8 <main+0xaa>
    f4e0:	00 c0       	rjmp	.+0      	; 0xf4e2 <main+0xb4>
    f4e2:	00 00       	nop
				_delay_ms(200);								   //give lordylink some time for startup
				USART_transmit_string(handshake_response);
    f4e4:	8a e4       	ldi	r24, 0x4A	; 74
    f4e6:	92 e0       	ldi	r25, 0x02	; 2
    f4e8:	0e 94 55 79 	call	0xf2aa	; 0xf2aa <USART_transmit_string>
				strcpy(handshake_array, "                ");   //delete input buffer			
    f4ec:	81 e1       	ldi	r24, 0x11	; 17
    f4ee:	e3 e9       	ldi	r30, 0x93	; 147
    f4f0:	f1 e0       	ldi	r31, 0x01	; 1
    f4f2:	a5 eb       	ldi	r26, 0xB5	; 181
    f4f4:	b2 e0       	ldi	r27, 0x02	; 2
    f4f6:	01 90       	ld	r0, Z+
    f4f8:	0d 92       	st	X+, r0
    f4fa:	8a 95       	dec	r24
    f4fc:	e1 f7       	brne	.-8      	; 0xf4f6 <main+0xc8>


void LCD_Printpos (char row, char pos, char *str)  //Write on a specific location
{
	if (row == 0 && pos<16)
		LCD_Action((pos & 0x0F)|0x80);
    f4fe:	80 e8       	ldi	r24, 0x80	; 128
    f500:	0e 94 5d 78 	call	0xf0ba	; 0xf0ba <LCD_Action>
	else if (row == 1 && pos<16)
		LCD_Action((pos & 0x0F)|0xC0);
	
	LCD_Print(str);
    f504:	8f e4       	ldi	r24, 0x4F	; 79
    f506:	91 e0       	ldi	r25, 0x01	; 1
    f508:	0e 94 a2 78 	call	0xf144	; 0xf144 <LCD_Print>
void LCD_Printpos (char row, char pos, char *str)  //Write on a specific location
{
	if (row == 0 && pos<16)
		LCD_Action((pos & 0x0F)|0x80);
	else if (row == 1 && pos<16)
		LCD_Action((pos & 0x0F)|0xC0);
    f50c:	80 ec       	ldi	r24, 0xC0	; 192
    f50e:	0e 94 5d 78 	call	0xf0ba	; 0xf0ba <LCD_Action>
	
	LCD_Print(str);
    f512:	81 e6       	ldi	r24, 0x61	; 97
    f514:	91 e0       	ldi	r25, 0x01	; 1
    f516:	0e 94 a2 78 	call	0xf144	; 0xf144 <LCD_Print>
			
			}
           
			
			//UPDATE CALL EVALUATION
			if(strcmp(update_array, update_call) == 0){  //if call is correct, response will be sent
    f51a:	60 e0       	ldi	r22, 0x00	; 0
    f51c:	71 e0       	ldi	r23, 0x01	; 1
    f51e:	8f ea       	ldi	r24, 0xAF	; 175
    f520:	92 e0       	ldi	r25, 0x02	; 2
    f522:	0e 94 af 7c 	call	0xf95e	; 0xf95e <strcmp>
    f526:	89 2b       	or	r24, r25
    f528:	61 f6       	brne	.-104    	; 0xf4c2 <main+0x94>
    f52a:	2f ef       	ldi	r18, 0xFF	; 255
    f52c:	84 e3       	ldi	r24, 0x34	; 52
    f52e:	9c e0       	ldi	r25, 0x0C	; 12
    f530:	21 50       	subi	r18, 0x01	; 1
    f532:	80 40       	sbci	r24, 0x00	; 0
    f534:	90 40       	sbci	r25, 0x00	; 0
    f536:	e1 f7       	brne	.-8      	; 0xf530 <main+0x102>
    f538:	00 c0       	rjmp	.+0      	; 0xf53a <main+0x10c>
    f53a:	00 00       	nop
				_delay_ms(200);								 
				USART_transmit_string(update_response);
    f53c:	85 e4       	ldi	r24, 0x45	; 69
    f53e:	92 e0       	ldi	r25, 0x02	; 2
    f540:	0e 94 55 79 	call	0xf2aa	; 0xf2aa <USART_transmit_string>
				strcpy(update_array, "     ");   //overwrite input buffer
    f544:	86 e0       	ldi	r24, 0x06	; 6
    f546:	ee e9       	ldi	r30, 0x9E	; 158
    f548:	f1 e0       	ldi	r31, 0x01	; 1
    f54a:	af ea       	ldi	r26, 0xAF	; 175
    f54c:	b2 e0       	ldi	r27, 0x02	; 2
    f54e:	01 90       	ld	r0, Z+
    f550:	0d 92       	st	X+, r0
    f552:	8a 95       	dec	r24
    f554:	e1 f7       	brne	.-8      	; 0xf54e <main+0x120>


void LCD_Printpos (char row, char pos, char *str)  //Write on a specific location
{
	if (row == 0 && pos<16)
		LCD_Action((pos & 0x0F)|0x80);
    f556:	80 e8       	ldi	r24, 0x80	; 128
    f558:	0e 94 5d 78 	call	0xf0ba	; 0xf0ba <LCD_Action>
	else if (row == 1 && pos<16)
		LCD_Action((pos & 0x0F)|0xC0);
	
	LCD_Print(str);
    f55c:	83 e7       	ldi	r24, 0x73	; 115
    f55e:	91 e0       	ldi	r25, 0x01	; 1
    f560:	0e 94 a2 78 	call	0xf144	; 0xf144 <LCD_Print>
void LCD_Printpos (char row, char pos, char *str)  //Write on a specific location
{
	if (row == 0 && pos<16)
		LCD_Action((pos & 0x0F)|0x80);
	else if (row == 1 && pos<16)
		LCD_Action((pos & 0x0F)|0xC0);
    f564:	80 ec       	ldi	r24, 0xC0	; 192
    f566:	0e 94 5d 78 	call	0xf0ba	; 0xf0ba <LCD_Action>
	
	LCD_Print(str);
    f56a:	83 e8       	ldi	r24, 0x83	; 131
    f56c:	91 e0       	ldi	r25, 0x01	; 1
    f56e:	0e 94 a2 78 	call	0xf144	; 0xf144 <LCD_Print>
    f572:	a7 cf       	rjmp	.-178    	; 0xf4c2 <main+0x94>
			
			
		} //end while(1) 
	}else{
	
	start();
    f574:	e0 91 62 02 	lds	r30, 0x0262	; 0x800262 <__data_end>
    f578:	f0 91 63 02 	lds	r31, 0x0263	; 0x800263 <__data_end+0x1>
    f57c:	09 95       	icall





} // end main 
    f57e:	80 e0       	ldi	r24, 0x00	; 0
    f580:	90 e0       	ldi	r25, 0x00	; 0
    f582:	08 95       	ret

0000f584 <__vector_20>:

//Interrupt Service Routine is in sleep mode unless USART message is received

ISR(USART0_RX_vect)
{
    f584:	1f 92       	push	r1
    f586:	0f 92       	push	r0
    f588:	0f b6       	in	r0, 0x3f	; 63
    f58a:	0f 92       	push	r0
    f58c:	11 24       	eor	r1, r1
    f58e:	ef 92       	push	r14
    f590:	ff 92       	push	r15
    f592:	0f 93       	push	r16
    f594:	1f 93       	push	r17
    f596:	2f 93       	push	r18
    f598:	3f 93       	push	r19
    f59a:	4f 93       	push	r20
    f59c:	5f 93       	push	r21
    f59e:	6f 93       	push	r22
    f5a0:	7f 93       	push	r23
    f5a2:	8f 93       	push	r24
    f5a4:	9f 93       	push	r25
    f5a6:	af 93       	push	r26
    f5a8:	bf 93       	push	r27
    f5aa:	cf 93       	push	r28
    f5ac:	df 93       	push	r29
    f5ae:	ef 93       	push	r30
    f5b0:	ff 93       	push	r31
}


uint8_t USART_receive_byte(void)
{
	while (!(UCSR0A & (1<<RXC0)))
    f5b2:	80 91 c0 00 	lds	r24, 0x00C0	; 0x8000c0 <__TEXT_REGION_LENGTH__+0x7f00c0>
    f5b6:	87 ff       	sbrs	r24, 7
    f5b8:	fc cf       	rjmp	.-8      	; 0xf5b2 <__vector_20+0x2e>
	;   
	
	return UDR0;												
    f5ba:	80 91 c6 00 	lds	r24, 0x00C6	; 0x8000c6 <__TEXT_REGION_LENGTH__+0x7f00c6>

//Interrupt Service Routine is in sleep mode unless USART message is received

ISR(USART0_RX_vect)
{
	header = USART_receive_byte();  //header will determine, which kind of message is arriving (following if/else paths)
    f5be:	80 93 ce 02 	sts	0x02CE, r24	; 0x8002ce <header>
	
	
	//HANDSHAKE MESSAGE
	
	if (header == usart_handshake_message){  // if incoming data is of handshake type...
    f5c2:	80 91 ce 02 	lds	r24, 0x02CE	; 0x8002ce <header>
    f5c6:	81 32       	cpi	r24, 0x21	; 33
    f5c8:	09 f4       	brne	.+2      	; 0xf5cc <__vector_20+0x48>
    f5ca:	46 c0       	rjmp	.+140    	; 0xf658 <__vector_20+0xd4>
	//AFTER HEX-RECORD IS RECEIVED, CHECKSUM WILL BE EVALUATED AND CONFIRMATION MESSAGE ("ok" or "er") WILL BE SENT TO LORDYLINK'S BLOCKING THREAD
	//IF CONFIRMATION IS "ok", LORDYLINK SENDS NEXT RECORD AFTER CONTROLLER HAS WRITTEN DATA SECTION INTO THE SRAM
	//IF CONFIRMATION IS "er", LORDYLINK SENDS CURRENT RECORD AGAIN, EVALUATION STARTS FROM THE TOP
	//IF CONFIRMATION MESSAGE ISN'T RECOGNIZED BY LORDYLINK, CHECKSUM STATUS WILL BE RE-EVALUATED AND CONFIRMATION MESSAGE IS TRANSMITTED AGAIN.
	
	else if(header == usart_hexfile_message){   //if message is hexfile....
    f5cc:	80 91 ce 02 	lds	r24, 0x02CE	; 0x8002ce <header>
    f5d0:	8a 33       	cpi	r24, 0x3A	; 58
    f5d2:	09 f4       	brne	.+2      	; 0xf5d6 <__vector_20+0x52>
    f5d4:	50 c0       	rjmp	.+160    	; 0xf676 <__vector_20+0xf2>
			}
	} // end else if(header == usart_hexfile_message)
	
	//THIS MESSAGE HEADER INDICATES THAT HEXFILE CONFIRMATION MESSAGE WASN'T RECOGNIZED BY LORDYLINK
	
	else if(header == usart_rx_error_hexrecord){									//lordylink didn't "understand" last confirmation	
    f5d6:	80 91 ce 02 	lds	r24, 0x02CE	; 0x8002ce <header>
    f5da:	8f 33       	cpi	r24, 0x3F	; 63
    f5dc:	09 f4       	brne	.+2      	; 0xf5e0 <__vector_20+0x5c>
    f5de:	e9 c0       	rjmp	.+466    	; 0xf7b2 <__vector_20+0x22e>
			USART_transmit_string("ok");	
			
		else																		// if error => record will be sent again, otherwise SRAM will have been correctly written
			USART_transmit_string("er");
	}
	else if(header == usart_request_data_dump){
    f5e0:	80 91 ce 02 	lds	r24, 0x02CE	; 0x8002ce <header>
    f5e4:	83 37       	cpi	r24, 0x73	; 115
    f5e6:	09 f4       	brne	.+2      	; 0xf5ea <__vector_20+0x66>
    f5e8:	44 c1       	rjmp	.+648    	; 0xf872 <__vector_20+0x2ee>
		{
			sram_address = 0;
			send_sram_flag = 1;
		}
	}
	else if(header == usart_clock_hi ){	//clock for sram dump, TODO: block for checksum calc
    f5ea:	80 91 ce 02 	lds	r24, 0x02CE	; 0x8002ce <header>
    f5ee:	8b 32       	cpi	r24, 0x2B	; 43
    f5f0:	09 f4       	brne	.+2      	; 0xf5f4 <__vector_20+0x70>
    f5f2:	6b c1       	rjmp	.+726    	; 0xf8ca <__vector_20+0x346>
		clk = 1;
	}
	else if(header == usart_clock_low){
    f5f4:	80 91 ce 02 	lds	r24, 0x02CE	; 0x8002ce <header>
    f5f8:	8d 32       	cpi	r24, 0x2D	; 45
    f5fa:	09 f4       	brne	.+2      	; 0xf5fe <__vector_20+0x7a>
    f5fc:	7d c1       	rjmp	.+762    	; 0xf8f8 <__vector_20+0x374>
		clk = 0;
	}
	
	else if(header == usart_hexfile_send_complete){							//hexfile transfer is complete
    f5fe:	80 91 ce 02 	lds	r24, 0x02CE	; 0x8002ce <header>
    f602:	87 37       	cpi	r24, 0x77	; 119
    f604:	09 f4       	brne	.+2      	; 0xf608 <__vector_20+0x84>
    f606:	7b c1       	rjmp	.+758    	; 0xf8fe <__vector_20+0x37a>
		//sram_address = 0;
		//byte_ctr = 0;
		//checksum_status = is_error;
		//
	//}
	else if (header == usart_update_message){  // if incoming data is of update handshake type...
    f608:	80 91 ce 02 	lds	r24, 0x02CE	; 0x8002ce <header>
    f60c:	85 37       	cpi	r24, 0x75	; 117
    f60e:	69 f4       	brne	.+26     	; 0xf62a <__vector_20+0xa6>
    f610:	ef ea       	ldi	r30, 0xAF	; 175
    f612:	f2 e0       	ldi	r31, 0x02	; 2
}


uint8_t USART_receive_byte(void)
{
	while (!(UCSR0A & (1<<RXC0)))
    f614:	80 91 c0 00 	lds	r24, 0x00C0	; 0x8000c0 <__TEXT_REGION_LENGTH__+0x7f00c0>
    f618:	87 ff       	sbrs	r24, 7
    f61a:	fc cf       	rjmp	.-8      	; 0xf614 <__vector_20+0x90>
	;   
	
	return UDR0;												
    f61c:	80 91 c6 00 	lds	r24, 0x00C6	; 0x8000c6 <__TEXT_REGION_LENGTH__+0x7f00c6>
		//checksum_status = is_error;
		//
	//}
	else if (header == usart_update_message){  // if incoming data is of update handshake type...
		for(int i = 0; i < 5; ++i)
		update_array[i] = USART_receive_byte();  //read handshake call, if correct: response will be sent from main application
    f620:	81 93       	st	Z+, r24
		//byte_ctr = 0;
		//checksum_status = is_error;
		//
	//}
	else if (header == usart_update_message){  // if incoming data is of update handshake type...
		for(int i = 0; i < 5; ++i)
    f622:	82 e0       	ldi	r24, 0x02	; 2
    f624:	e4 3b       	cpi	r30, 0xB4	; 180
    f626:	f8 07       	cpc	r31, r24
    f628:	a9 f7       	brne	.-22     	; 0xf614 <__vector_20+0x90>
		
	}
    
	
	
}
    f62a:	ff 91       	pop	r31
    f62c:	ef 91       	pop	r30
    f62e:	df 91       	pop	r29
    f630:	cf 91       	pop	r28
    f632:	bf 91       	pop	r27
    f634:	af 91       	pop	r26
    f636:	9f 91       	pop	r25
    f638:	8f 91       	pop	r24
    f63a:	7f 91       	pop	r23
    f63c:	6f 91       	pop	r22
    f63e:	5f 91       	pop	r21
    f640:	4f 91       	pop	r20
    f642:	3f 91       	pop	r19
    f644:	2f 91       	pop	r18
    f646:	1f 91       	pop	r17
    f648:	0f 91       	pop	r16
    f64a:	ff 90       	pop	r15
    f64c:	ef 90       	pop	r14
    f64e:	0f 90       	pop	r0
    f650:	0f be       	out	0x3f, r0	; 63
    f652:	0f 90       	pop	r0
    f654:	1f 90       	pop	r1
    f656:	18 95       	reti
    f658:	e5 eb       	ldi	r30, 0xB5	; 181
    f65a:	f2 e0       	ldi	r31, 0x02	; 2
    f65c:	25 ec       	ldi	r18, 0xC5	; 197
    f65e:	32 e0       	ldi	r19, 0x02	; 2
}


uint8_t USART_receive_byte(void)
{
	while (!(UCSR0A & (1<<RXC0)))
    f660:	80 91 c0 00 	lds	r24, 0x00C0	; 0x8000c0 <__TEXT_REGION_LENGTH__+0x7f00c0>
    f664:	87 ff       	sbrs	r24, 7
    f666:	fc cf       	rjmp	.-8      	; 0xf660 <__vector_20+0xdc>
	;   
	
	return UDR0;												
    f668:	80 91 c6 00 	lds	r24, 0x00C6	; 0x8000c6 <__TEXT_REGION_LENGTH__+0x7f00c6>
	
	//HANDSHAKE MESSAGE
	
	if (header == usart_handshake_message){  // if incoming data is of handshake type...
		for(uint8_t i = 0; i < 16; ++i)
			handshake_array[i] = USART_receive_byte();  //read handshake call, if correct: response will be sent from main application
    f66c:	81 93       	st	Z+, r24
	
	
	//HANDSHAKE MESSAGE
	
	if (header == usart_handshake_message){  // if incoming data is of handshake type...
		for(uint8_t i = 0; i < 16; ++i)
    f66e:	2e 17       	cp	r18, r30
    f670:	3f 07       	cpc	r19, r31
    f672:	b1 f7       	brne	.-20     	; 0xf660 <__vector_20+0xdc>
    f674:	da cf       	rjmp	.-76     	; 0xf62a <__vector_20+0xa6>
	//IF CONFIRMATION IS "ok", LORDYLINK SENDS NEXT RECORD AFTER CONTROLLER HAS WRITTEN DATA SECTION INTO THE SRAM
	//IF CONFIRMATION IS "er", LORDYLINK SENDS CURRENT RECORD AGAIN, EVALUATION STARTS FROM THE TOP
	//IF CONFIRMATION MESSAGE ISN'T RECOGNIZED BY LORDYLINK, CHECKSUM STATUS WILL BE RE-EVALUATED AND CONFIRMATION MESSAGE IS TRANSMITTED AGAIN.
	
	else if(header == usart_hexfile_message){   //if message is hexfile....
		    ++record_ctr;
    f676:	80 91 65 02 	lds	r24, 0x0265	; 0x800265 <record_ctr>
    f67a:	90 91 66 02 	lds	r25, 0x0266	; 0x800266 <record_ctr+0x1>
    f67e:	a0 91 67 02 	lds	r26, 0x0267	; 0x800267 <record_ctr+0x2>
    f682:	b0 91 68 02 	lds	r27, 0x0268	; 0x800268 <record_ctr+0x3>
    f686:	01 96       	adiw	r24, 0x01	; 1
    f688:	a1 1d       	adc	r26, r1
    f68a:	b1 1d       	adc	r27, r1
    f68c:	80 93 65 02 	sts	0x0265, r24	; 0x800265 <record_ctr>
    f690:	90 93 66 02 	sts	0x0266, r25	; 0x800266 <record_ctr+0x1>
    f694:	a0 93 67 02 	sts	0x0267, r26	; 0x800267 <record_ctr+0x2>
    f698:	b0 93 68 02 	sts	0x0268, r27	; 0x800268 <record_ctr+0x3>
}


uint8_t USART_receive_byte(void)
{
	while (!(UCSR0A & (1<<RXC0)))
    f69c:	80 91 c0 00 	lds	r24, 0x00C0	; 0x8000c0 <__TEXT_REGION_LENGTH__+0x7f00c0>
    f6a0:	87 ff       	sbrs	r24, 7
    f6a2:	fc cf       	rjmp	.-8      	; 0xf69c <__vector_20+0x118>
	;   
	
	return UDR0;												
    f6a4:	10 91 c6 00 	lds	r17, 0x00C6	; 0x8000c6 <__TEXT_REGION_LENGTH__+0x7f00c6>
	else if(header == usart_hexfile_message){   //if message is hexfile....
		    ++record_ctr;
			//PARSE INCOMING MESSAGE
		
			uint8_t data_section_size = USART_receive_byte();						//this is the amount of databytes that will be written into the SRAM
			uint8_t hex_record_size = data_section_size + 5;				// add start bytes and checksum to data section length for total size of message
    f6a8:	85 e0       	ldi	r24, 0x05	; 5
    f6aa:	81 0f       	add	r24, r17
		
			hex_buffer_array[0] = data_section_size;						//buffer starts with data_section_size, header ':' will be discarded
    f6ac:	10 93 6f 02 	sts	0x026F, r17	; 0x80026f <hex_buffer_array>
		
			for(int i = 1; i < hex_record_size ; ++i )						// get rest of message data
    f6b0:	c8 2f       	mov	r28, r24
    f6b2:	d0 e0       	ldi	r29, 0x00	; 0
    f6b4:	82 30       	cpi	r24, 0x02	; 2
    f6b6:	88 f0       	brcs	.+34     	; 0xf6da <__vector_20+0x156>
    f6b8:	21 e0       	ldi	r18, 0x01	; 1
    f6ba:	30 e0       	ldi	r19, 0x00	; 0
}


uint8_t USART_receive_byte(void)
{
	while (!(UCSR0A & (1<<RXC0)))
    f6bc:	80 91 c0 00 	lds	r24, 0x00C0	; 0x8000c0 <__TEXT_REGION_LENGTH__+0x7f00c0>
    f6c0:	87 ff       	sbrs	r24, 7
    f6c2:	fc cf       	rjmp	.-8      	; 0xf6bc <__vector_20+0x138>
	;   
	
	return UDR0;												
    f6c4:	80 91 c6 00 	lds	r24, 0x00C6	; 0x8000c6 <__TEXT_REGION_LENGTH__+0x7f00c6>
			uint8_t hex_record_size = data_section_size + 5;				// add start bytes and checksum to data section length for total size of message
		
			hex_buffer_array[0] = data_section_size;						//buffer starts with data_section_size, header ':' will be discarded
		
			for(int i = 1; i < hex_record_size ; ++i )						// get rest of message data
				hex_buffer_array[ i ] = USART_receive_byte();
    f6c8:	f9 01       	movw	r30, r18
    f6ca:	e1 59       	subi	r30, 0x91	; 145
    f6cc:	fd 4f       	sbci	r31, 0xFD	; 253
    f6ce:	80 83       	st	Z, r24
			uint8_t data_section_size = USART_receive_byte();						//this is the amount of databytes that will be written into the SRAM
			uint8_t hex_record_size = data_section_size + 5;				// add start bytes and checksum to data section length for total size of message
		
			hex_buffer_array[0] = data_section_size;						//buffer starts with data_section_size, header ':' will be discarded
		
			for(int i = 1; i < hex_record_size ; ++i )						// get rest of message data
    f6d0:	2f 5f       	subi	r18, 0xFF	; 255
    f6d2:	3f 4f       	sbci	r19, 0xFF	; 255
    f6d4:	c2 17       	cp	r28, r18
    f6d6:	d3 07       	cpc	r29, r19
    f6d8:	89 f7       	brne	.-30     	; 0xf6bc <__vector_20+0x138>
			
			
			
			//TRANSMISSION IS NOW COMPLETED AND STORED IN BUFFER
		
			switch(animation_ctr){											// display animation, tells user that all is going well
    f6da:	80 91 69 02 	lds	r24, 0x0269	; 0x800269 <animation_ctr>
    f6de:	90 91 6a 02 	lds	r25, 0x026A	; 0x80026a <animation_ctr+0x1>
    f6e2:	a0 91 6b 02 	lds	r26, 0x026B	; 0x80026b <animation_ctr+0x2>
    f6e6:	b0 91 6c 02 	lds	r27, 0x026C	; 0x80026c <animation_ctr+0x3>
    f6ea:	88 37       	cpi	r24, 0x78	; 120
    f6ec:	91 05       	cpc	r25, r1
    f6ee:	a1 05       	cpc	r26, r1
    f6f0:	b1 05       	cpc	r27, r1
    f6f2:	09 f4       	brne	.+2      	; 0xf6f6 <__vector_20+0x172>
    f6f4:	67 c0       	rjmp	.+206    	; 0xf7c4 <__vector_20+0x240>
    f6f6:	08 f4       	brcc	.+2      	; 0xf6fa <__vector_20+0x176>
    f6f8:	c8 c0       	rjmp	.+400    	; 0xf88a <__vector_20+0x306>
    f6fa:	80 3f       	cpi	r24, 0xF0	; 240
    f6fc:	91 05       	cpc	r25, r1
    f6fe:	a1 05       	cpc	r26, r1
    f700:	b1 05       	cpc	r27, r1
    f702:	09 f4       	brne	.+2      	; 0xf706 <__vector_20+0x182>
    f704:	e6 c0       	rjmp	.+460    	; 0xf8d2 <__vector_20+0x34e>
    f706:	88 36       	cpi	r24, 0x68	; 104
    f708:	21 e0       	ldi	r18, 0x01	; 1
    f70a:	92 07       	cpc	r25, r18
    f70c:	a1 05       	cpc	r26, r1
    f70e:	b1 05       	cpc	r27, r1
    f710:	09 f0       	breq	.+2      	; 0xf714 <__vector_20+0x190>
    f712:	67 c0       	rjmp	.+206    	; 0xf7e2 <__vector_20+0x25e>
    f714:	81 e0       	ldi	r24, 0x01	; 1
    f716:	90 e0       	ldi	r25, 0x00	; 0
    f718:	a0 e0       	ldi	r26, 0x00	; 0
    f71a:	b0 e0       	ldi	r27, 0x00	; 0
				
				case 360:
					animation_ctr = 0; 
					break;
			}//end switch
			animation_ctr++;
    f71c:	80 93 69 02 	sts	0x0269, r24	; 0x800269 <animation_ctr>
    f720:	90 93 6a 02 	sts	0x026A, r25	; 0x80026a <animation_ctr+0x1>
    f724:	a0 93 6b 02 	sts	0x026B, r26	; 0x80026b <animation_ctr+0x2>
    f728:	b0 93 6c 02 	sts	0x026C, r27	; 0x80026c <animation_ctr+0x3>
			
			//THIS PART CALCULATES CHECKSUM FROM MESSAGE
			//AND COMPARES IT TO THE CHECKSUM IN THE HEX-RECORD
			
			uint16_t vec_sum = 0;												//local helper variable for checksum calculation
			uint8_t checksum_from_file = hex_buffer_array[hex_record_size-1];   //read checksum from file
    f72c:	9e 01       	movw	r18, r28
    f72e:	21 50       	subi	r18, 0x01	; 1
    f730:	31 09       	sbc	r19, r1
    f732:	f9 01       	movw	r30, r18
    f734:	e1 59       	subi	r30, 0x91	; 145
    f736:	fd 4f       	sbci	r31, 0xFD	; 253
    f738:	70 81       	ld	r23, Z
		
			for(int i = 0; i < hex_record_size - 1; ++i){						// accumulate record for checksum calculation
    f73a:	12 16       	cp	r1, r18
    f73c:	13 06       	cpc	r1, r19
    f73e:	0c f0       	brlt	.+2      	; 0xf742 <__vector_20+0x1be>
    f740:	0c c1       	rjmp	.+536    	; 0xf95a <__vector_20+0x3d6>
    f742:	80 e0       	ldi	r24, 0x00	; 0
    f744:	90 e0       	ldi	r25, 0x00	; 0
    f746:	40 e0       	ldi	r20, 0x00	; 0
    f748:	50 e0       	ldi	r21, 0x00	; 0
				vec_sum += hex_buffer_array[ i ];
    f74a:	fc 01       	movw	r30, r24
    f74c:	e1 59       	subi	r30, 0x91	; 145
    f74e:	fd 4f       	sbci	r31, 0xFD	; 253
    f750:	60 81       	ld	r22, Z
    f752:	46 0f       	add	r20, r22
    f754:	51 1d       	adc	r21, r1
			//AND COMPARES IT TO THE CHECKSUM IN THE HEX-RECORD
			
			uint16_t vec_sum = 0;												//local helper variable for checksum calculation
			uint8_t checksum_from_file = hex_buffer_array[hex_record_size-1];   //read checksum from file
		
			for(int i = 0; i < hex_record_size - 1; ++i){						// accumulate record for checksum calculation
    f756:	01 96       	adiw	r24, 0x01	; 1
    f758:	82 17       	cp	r24, r18
    f75a:	93 07       	cpc	r25, r19
    f75c:	b1 f7       	brne	.-20     	; 0xf74a <__vector_20+0x1c6>
    f75e:	41 95       	neg	r20
				vec_sum += hex_buffer_array[ i ];
                
            }		    
			uint8_t checksum_calculated =  ~(vec_sum & 0x00ff ) + 0x01;		// actual checksum calculation
		
			if(checksum_calculated == checksum_from_file ){						// compare checksums
    f760:	74 17       	cp	r23, r20
    f762:	09 f4       	brne	.+2      	; 0xf766 <__vector_20+0x1e2>
    f764:	42 c0       	rjmp	.+132    	; 0xf7ea <__vector_20+0x266>
																				// "er" => current record will be sent again. if neither "ok" nor "er" is detected by lordylink, rx_error_header will be sent
																				//to reevaluate checksum via flag variable "checksum_is"
			}//end if(checksum calculated....	
			
			else if( checksum_calculated != checksum_from_file){
				checksum_status = is_error;											// error, same record will be sent again
    f766:	10 92 6d 02 	sts	0x026D, r1	; 0x80026d <checksum_status>


void LCD_Printpos (char row, char pos, char *str)  //Write on a specific location
{
	if (row == 0 && pos<16)
		LCD_Action((pos & 0x0F)|0x80);
    f76a:	80 e8       	ldi	r24, 0x80	; 128
    f76c:	0e 94 5d 78 	call	0xf0ba	; 0xf0ba <LCD_Action>
	else if (row == 1 && pos<16)
		LCD_Action((pos & 0x0F)|0xC0);
	
	LCD_Print(str);
    f770:	8e ee       	ldi	r24, 0xEE	; 238
    f772:	91 e0       	ldi	r25, 0x01	; 1
    f774:	0e 94 a2 78 	call	0xf144	; 0xf144 <LCD_Print>
void LCD_Printpos (char row, char pos, char *str)  //Write on a specific location
{
	if (row == 0 && pos<16)
		LCD_Action((pos & 0x0F)|0x80);
	else if (row == 1 && pos<16)
		LCD_Action((pos & 0x0F)|0xC0);
    f778:	80 ec       	ldi	r24, 0xC0	; 192
    f77a:	0e 94 5d 78 	call	0xf0ba	; 0xf0ba <LCD_Action>
	
	LCD_Print(str);
    f77e:	84 e0       	ldi	r24, 0x04	; 4
    f780:	92 e0       	ldi	r25, 0x02	; 2
    f782:	0e 94 a2 78 	call	0xf144	; 0xf144 <LCD_Print>
    f786:	9f e7       	ldi	r25, 0x7F	; 127
    f788:	2a e1       	ldi	r18, 0x1A	; 26
    f78a:	86 e0       	ldi	r24, 0x06	; 6
    f78c:	91 50       	subi	r25, 0x01	; 1
    f78e:	20 40       	sbci	r18, 0x00	; 0
    f790:	80 40       	sbci	r24, 0x00	; 0
    f792:	e1 f7       	brne	.-8      	; 0xf78c <__vector_20+0x208>
    f794:	00 c0       	rjmp	.+0      	; 0xf796 <__vector_20+0x212>
    f796:	00 00       	nop
				LCD_Printpos(0,0,"checksum error!      ");						//LCD user feedback
				LCD_Printpos(1,0,"trying again......  ");
				
				_delay_ms(100);
				
				animation_ctr  = 0;
    f798:	10 92 69 02 	sts	0x0269, r1	; 0x800269 <animation_ctr>
    f79c:	10 92 6a 02 	sts	0x026A, r1	; 0x80026a <animation_ctr+0x1>
    f7a0:	10 92 6b 02 	sts	0x026B, r1	; 0x80026b <animation_ctr+0x2>
    f7a4:	10 92 6c 02 	sts	0x026C, r1	; 0x80026c <animation_ctr+0x3>
				USART_transmit_string("er");										
    f7a8:	89 e1       	ldi	r24, 0x19	; 25
    f7aa:	92 e0       	ldi	r25, 0x02	; 2
    f7ac:	0e 94 55 79 	call	0xf2aa	; 0xf2aa <USART_transmit_string>
    f7b0:	3c cf       	rjmp	.-392    	; 0xf62a <__vector_20+0xa6>
	//THIS MESSAGE HEADER INDICATES THAT HEXFILE CONFIRMATION MESSAGE WASN'T RECOGNIZED BY LORDYLINK
	
	else if(header == usart_rx_error_hexrecord){									//lordylink didn't "understand" last confirmation	
		
		
		if(checksum_status == is_ok)											    // evaluating last checksum again...
    f7b2:	80 91 6d 02 	lds	r24, 0x026D	; 0x80026d <checksum_status>
    f7b6:	81 11       	cpse	r24, r1
    f7b8:	57 c0       	rjmp	.+174    	; 0xf868 <__vector_20+0x2e4>
			USART_transmit_string("ok");	
			
		else																		// if error => record will be sent again, otherwise SRAM will have been correctly written
			USART_transmit_string("er");
    f7ba:	89 e1       	ldi	r24, 0x19	; 25
    f7bc:	92 e0       	ldi	r25, 0x02	; 2
    f7be:	0e 94 55 79 	call	0xf2aa	; 0xf2aa <USART_transmit_string>
    f7c2:	33 cf       	rjmp	.-410    	; 0xf62a <__vector_20+0xa6>
void LCD_Printpos (char row, char pos, char *str)  //Write on a specific location
{
	if (row == 0 && pos<16)
		LCD_Action((pos & 0x0F)|0x80);
	else if (row == 1 && pos<16)
		LCD_Action((pos & 0x0F)|0xC0);
    f7c4:	80 ec       	ldi	r24, 0xC0	; 192
    f7c6:	0e 94 5d 78 	call	0xf0ba	; 0xf0ba <LCD_Action>
	
	LCD_Print(str);
    f7ca:	88 ec       	ldi	r24, 0xC8	; 200
    f7cc:	91 e0       	ldi	r25, 0x01	; 1
    f7ce:	0e 94 a2 78 	call	0xf144	; 0xf144 <LCD_Print>
    f7d2:	80 91 69 02 	lds	r24, 0x0269	; 0x800269 <animation_ctr>
    f7d6:	90 91 6a 02 	lds	r25, 0x026A	; 0x80026a <animation_ctr+0x1>
    f7da:	a0 91 6b 02 	lds	r26, 0x026B	; 0x80026b <animation_ctr+0x2>
    f7de:	b0 91 6c 02 	lds	r27, 0x026C	; 0x80026c <animation_ctr+0x3>
    f7e2:	01 96       	adiw	r24, 0x01	; 1
    f7e4:	a1 1d       	adc	r26, r1
    f7e6:	b1 1d       	adc	r27, r1
    f7e8:	99 cf       	rjmp	.-206    	; 0xf71c <__vector_20+0x198>
                
            }		    
			uint8_t checksum_calculated =  ~(vec_sum & 0x00ff ) + 0x01;		// actual checksum calculation
		
			if(checksum_calculated == checksum_from_file ){						// compare checksums
				checksum_status = is_ok;										// set boolean flag for error handling
    f7ea:	81 e0       	ldi	r24, 0x01	; 1
    f7ec:	80 93 6d 02 	sts	0x026D, r24	; 0x80026d <checksum_status>
				
				for(int i = 0; i < data_section_size; ++i){						//if checksum is ok, write data-section to SRAM
    f7f0:	11 23       	and	r17, r17
    f7f2:	d1 f1       	breq	.+116    	; 0xf868 <__vector_20+0x2e4>
    f7f4:	e1 2e       	mov	r14, r17
    f7f6:	f1 2c       	mov	r15, r1
    f7f8:	84 e0       	ldi	r24, 0x04	; 4
    f7fa:	e8 0e       	add	r14, r24
    f7fc:	f1 1c       	adc	r15, r1
    f7fe:	04 e0       	ldi	r16, 0x04	; 4
    f800:	10 e0       	ldi	r17, 0x00	; 0
    f802:	e8 01       	movw	r28, r16
    f804:	c1 59       	subi	r28, 0x91	; 145
    f806:	dd 4f       	sbci	r29, 0xFD	; 253
					
					do{
						SPI_SRAM_ByteWrite(address, hex_buffer_array[ i + 4 ]);	
    f808:	48 81       	ld	r20, Y
    f80a:	60 91 c6 02 	lds	r22, 0x02C6	; 0x8002c6 <address>
    f80e:	70 91 c7 02 	lds	r23, 0x02C7	; 0x8002c7 <address+0x1>
    f812:	80 91 c8 02 	lds	r24, 0x02C8	; 0x8002c8 <address+0x2>
    f816:	90 91 c9 02 	lds	r25, 0x02C9	; 0x8002c9 <address+0x3>
    f81a:	0e 94 df 78 	call	0xf1be	; 0xf1be <SPI_SRAM_ByteWrite>
					
					}while(SPI_SRAM_ByteRead(address) !=  hex_buffer_array[ i + 4 ]);  //additional safety-guard: write to address and read content back. if this doesn't work, sram is probably broken
    f81e:	60 91 c6 02 	lds	r22, 0x02C6	; 0x8002c6 <address>
    f822:	70 91 c7 02 	lds	r23, 0x02C7	; 0x8002c7 <address+0x1>
    f826:	80 91 c8 02 	lds	r24, 0x02C8	; 0x8002c8 <address+0x2>
    f82a:	90 91 c9 02 	lds	r25, 0x02C9	; 0x8002c9 <address+0x3>
    f82e:	0e 94 0a 79 	call	0xf214	; 0xf214 <SPI_SRAM_ByteRead>
    f832:	98 81       	ld	r25, Y
    f834:	89 13       	cpse	r24, r25
    f836:	e8 cf       	rjmp	.-48     	; 0xf808 <__vector_20+0x284>
				
					++address;	
    f838:	80 91 c6 02 	lds	r24, 0x02C6	; 0x8002c6 <address>
    f83c:	90 91 c7 02 	lds	r25, 0x02C7	; 0x8002c7 <address+0x1>
    f840:	a0 91 c8 02 	lds	r26, 0x02C8	; 0x8002c8 <address+0x2>
    f844:	b0 91 c9 02 	lds	r27, 0x02C9	; 0x8002c9 <address+0x3>
    f848:	01 96       	adiw	r24, 0x01	; 1
    f84a:	a1 1d       	adc	r26, r1
    f84c:	b1 1d       	adc	r27, r1
    f84e:	80 93 c6 02 	sts	0x02C6, r24	; 0x8002c6 <address>
    f852:	90 93 c7 02 	sts	0x02C7, r25	; 0x8002c7 <address+0x1>
    f856:	a0 93 c8 02 	sts	0x02C8, r26	; 0x8002c8 <address+0x2>
    f85a:	b0 93 c9 02 	sts	0x02C9, r27	; 0x8002c9 <address+0x3>
    f85e:	0f 5f       	subi	r16, 0xFF	; 255
    f860:	1f 4f       	sbci	r17, 0xFF	; 255
			uint8_t checksum_calculated =  ~(vec_sum & 0x00ff ) + 0x01;		// actual checksum calculation
		
			if(checksum_calculated == checksum_from_file ){						// compare checksums
				checksum_status = is_ok;										// set boolean flag for error handling
				
				for(int i = 0; i < data_section_size; ++i){						//if checksum is ok, write data-section to SRAM
    f862:	e0 16       	cp	r14, r16
    f864:	f1 06       	cpc	r15, r17
    f866:	69 f6       	brne	.-102    	; 0xf802 <__vector_20+0x27e>
					}while(SPI_SRAM_ByteRead(address) !=  hex_buffer_array[ i + 4 ]);  //additional safety-guard: write to address and read content back. if this doesn't work, sram is probably broken
				
					++address;	
						
				}//end for
				USART_transmit_string("ok");									// confirm transmission: lordylink thread blocks until confirmation is either "ok" or "er". checksum "ok" => SRAM will be written, next record will be sent
    f868:	8b ee       	ldi	r24, 0xEB	; 235
    f86a:	91 e0       	ldi	r25, 0x01	; 1
    f86c:	0e 94 55 79 	call	0xf2aa	; 0xf2aa <USART_transmit_string>
    f870:	dc ce       	rjmp	.-584    	; 0xf62a <__vector_20+0xa6>
		else																		// if error => record will be sent again, otherwise SRAM will have been correctly written
			USART_transmit_string("er");
	}
	else if(header == usart_request_data_dump){
		{
			sram_address = 0;
    f872:	10 92 ca 02 	sts	0x02CA, r1	; 0x8002ca <sram_address>
    f876:	10 92 cb 02 	sts	0x02CB, r1	; 0x8002cb <sram_address+0x1>
    f87a:	10 92 cc 02 	sts	0x02CC, r1	; 0x8002cc <sram_address+0x2>
    f87e:	10 92 cd 02 	sts	0x02CD, r1	; 0x8002cd <sram_address+0x3>
			send_sram_flag = 1;
    f882:	81 e0       	ldi	r24, 0x01	; 1
    f884:	80 93 64 02 	sts	0x0264, r24	; 0x800264 <send_sram_flag>
    f888:	d0 ce       	rjmp	.-608    	; 0xf62a <__vector_20+0xa6>
			
			
			
			//TRANSMISSION IS NOW COMPLETED AND STORED IN BUFFER
		
			switch(animation_ctr){											// display animation, tells user that all is going well
    f88a:	81 30       	cpi	r24, 0x01	; 1
    f88c:	91 05       	cpc	r25, r1
    f88e:	a1 05       	cpc	r26, r1
    f890:	b1 05       	cpc	r27, r1
    f892:	09 f0       	breq	.+2      	; 0xf896 <__vector_20+0x312>
    f894:	a6 cf       	rjmp	.-180    	; 0xf7e2 <__vector_20+0x25e>


void LCD_Printpos (char row, char pos, char *str)  //Write on a specific location
{
	if (row == 0 && pos<16)
		LCD_Action((pos & 0x0F)|0x80);
    f896:	80 e8       	ldi	r24, 0x80	; 128
    f898:	0e 94 5d 78 	call	0xf0ba	; 0xf0ba <LCD_Action>
	else if (row == 1 && pos<16)
		LCD_Action((pos & 0x0F)|0xC0);
	
	LCD_Print(str);
    f89c:	84 ea       	ldi	r24, 0xA4	; 164
    f89e:	91 e0       	ldi	r25, 0x01	; 1
    f8a0:	0e 94 a2 78 	call	0xf144	; 0xf144 <LCD_Print>
void LCD_Printpos (char row, char pos, char *str)  //Write on a specific location
{
	if (row == 0 && pos<16)
		LCD_Action((pos & 0x0F)|0x80);
	else if (row == 1 && pos<16)
		LCD_Action((pos & 0x0F)|0xC0);
    f8a4:	80 ec       	ldi	r24, 0xC0	; 192
    f8a6:	0e 94 5d 78 	call	0xf0ba	; 0xf0ba <LCD_Action>
	
	LCD_Print(str);
    f8aa:	86 eb       	ldi	r24, 0xB6	; 182
    f8ac:	91 e0       	ldi	r25, 0x01	; 1
    f8ae:	0e 94 a2 78 	call	0xf144	; 0xf144 <LCD_Print>
    f8b2:	80 91 69 02 	lds	r24, 0x0269	; 0x800269 <animation_ctr>
    f8b6:	90 91 6a 02 	lds	r25, 0x026A	; 0x80026a <animation_ctr+0x1>
    f8ba:	a0 91 6b 02 	lds	r26, 0x026B	; 0x80026b <animation_ctr+0x2>
    f8be:	b0 91 6c 02 	lds	r27, 0x026C	; 0x80026c <animation_ctr+0x3>
    f8c2:	01 96       	adiw	r24, 0x01	; 1
    f8c4:	a1 1d       	adc	r26, r1
    f8c6:	b1 1d       	adc	r27, r1
    f8c8:	29 cf       	rjmp	.-430    	; 0xf71c <__vector_20+0x198>
			sram_address = 0;
			send_sram_flag = 1;
		}
	}
	else if(header == usart_clock_hi ){	//clock for sram dump, TODO: block for checksum calc
		clk = 1;
    f8ca:	81 e0       	ldi	r24, 0x01	; 1
    f8cc:	80 93 6e 02 	sts	0x026E, r24	; 0x80026e <clk>
    f8d0:	ac ce       	rjmp	.-680    	; 0xf62a <__vector_20+0xa6>
void LCD_Printpos (char row, char pos, char *str)  //Write on a specific location
{
	if (row == 0 && pos<16)
		LCD_Action((pos & 0x0F)|0x80);
	else if (row == 1 && pos<16)
		LCD_Action((pos & 0x0F)|0xC0);
    f8d2:	80 ec       	ldi	r24, 0xC0	; 192
    f8d4:	0e 94 5d 78 	call	0xf0ba	; 0xf0ba <LCD_Action>
	
	LCD_Print(str);
    f8d8:	8a ed       	ldi	r24, 0xDA	; 218
    f8da:	91 e0       	ldi	r25, 0x01	; 1
    f8dc:	0e 94 a2 78 	call	0xf144	; 0xf144 <LCD_Print>
    f8e0:	80 91 69 02 	lds	r24, 0x0269	; 0x800269 <animation_ctr>
    f8e4:	90 91 6a 02 	lds	r25, 0x026A	; 0x80026a <animation_ctr+0x1>
    f8e8:	a0 91 6b 02 	lds	r26, 0x026B	; 0x80026b <animation_ctr+0x2>
    f8ec:	b0 91 6c 02 	lds	r27, 0x026C	; 0x80026c <animation_ctr+0x3>
    f8f0:	01 96       	adiw	r24, 0x01	; 1
    f8f2:	a1 1d       	adc	r26, r1
    f8f4:	b1 1d       	adc	r27, r1
    f8f6:	12 cf       	rjmp	.-476    	; 0xf71c <__vector_20+0x198>
	}
	else if(header == usart_clock_hi ){	//clock for sram dump, TODO: block for checksum calc
		clk = 1;
	}
	else if(header == usart_clock_low){
		clk = 0;
    f8f8:	10 92 6e 02 	sts	0x026E, r1	; 0x80026e <clk>
    f8fc:	96 ce       	rjmp	.-724    	; 0xf62a <__vector_20+0xa6>
	_delay_ms(2);
}

void LCD_Clear()
{
	LCD_Action (0x01);		//Clear LCD
    f8fe:	81 e0       	ldi	r24, 0x01	; 1
    f900:	0e 94 5d 78 	call	0xf0ba	; 0xf0ba <LCD_Action>
	#else
		//round up by default
		__ticks_dc = (uint32_t)(ceil(fabs(__tmp)));
	#endif

	__builtin_avr_delay_cycles(__ticks_dc);
    f904:	95 e8       	ldi	r25, 0x85	; 133
    f906:	9a 95       	dec	r25
    f908:	f1 f7       	brne	.-4      	; 0xf906 <__vector_20+0x382>
    f90a:	00 00       	nop
	_delay_us(20);
	LCD_Action (0x80);		//Move to Position Line 1, Position 1
    f90c:	80 e8       	ldi	r24, 0x80	; 128
    f90e:	0e 94 5d 78 	call	0xf0ba	; 0xf0ba <LCD_Action>


void LCD_Printpos (char row, char pos, char *str)  //Write on a specific location
{
	if (row == 0 && pos<16)
		LCD_Action((pos & 0x0F)|0x80);
    f912:	80 e8       	ldi	r24, 0x80	; 128
    f914:	0e 94 5d 78 	call	0xf0ba	; 0xf0ba <LCD_Action>
	else if (row == 1 && pos<16)
		LCD_Action((pos & 0x0F)|0xC0);
	
	LCD_Print(str);
    f918:	8c e1       	ldi	r24, 0x1C	; 28
    f91a:	92 e0       	ldi	r25, 0x02	; 2
    f91c:	0e 94 a2 78 	call	0xf144	; 0xf144 <LCD_Print>
	#else
		//round up by default
		__ticks_dc = (uint32_t)(ceil(fabs(__tmp)));
	#endif

	__builtin_avr_delay_cycles(__ticks_dc);
    f920:	2f e7       	ldi	r18, 0x7F	; 127
    f922:	89 eb       	ldi	r24, 0xB9	; 185
    f924:	9a e2       	ldi	r25, 0x2A	; 42
    f926:	21 50       	subi	r18, 0x01	; 1
    f928:	80 40       	sbci	r24, 0x00	; 0
    f92a:	90 40       	sbci	r25, 0x00	; 0
    f92c:	e1 f7       	brne	.-8      	; 0xf926 <__vector_20+0x3a2>
    f92e:	00 c0       	rjmp	.+0      	; 0xf930 <__vector_20+0x3ac>
    f930:	00 00       	nop
	_delay_ms(2);
}

void LCD_Clear()
{
	LCD_Action (0x01);		//Clear LCD
    f932:	81 e0       	ldi	r24, 0x01	; 1
    f934:	0e 94 5d 78 	call	0xf0ba	; 0xf0ba <LCD_Action>
	#else
		//round up by default
		__ticks_dc = (uint32_t)(ceil(fabs(__tmp)));
	#endif

	__builtin_avr_delay_cycles(__ticks_dc);
    f938:	25 e8       	ldi	r18, 0x85	; 133
    f93a:	2a 95       	dec	r18
    f93c:	f1 f7       	brne	.-4      	; 0xf93a <__vector_20+0x3b6>
    f93e:	00 00       	nop
	_delay_us(20);
	LCD_Action (0x80);		//Move to Position Line 1, Position 1
    f940:	80 e8       	ldi	r24, 0x80	; 128
    f942:	0e 94 5d 78 	call	0xf0ba	; 0xf0ba <LCD_Action>


void LCD_Printpos (char row, char pos, char *str)  //Write on a specific location
{
	if (row == 0 && pos<16)
		LCD_Action((pos & 0x0F)|0x80);
    f946:	80 e8       	ldi	r24, 0x80	; 128
    f948:	0e 94 5d 78 	call	0xf0ba	; 0xf0ba <LCD_Action>
	else if (row == 1 && pos<16)
		LCD_Action((pos & 0x0F)|0xC0);
	
	LCD_Print(str);
    f94c:	80 e3       	ldi	r24, 0x30	; 48
    f94e:	92 e0       	ldi	r25, 0x02	; 2
    f950:	0e 94 a2 78 	call	0xf144	; 0xf144 <LCD_Print>
			_delay_ms(700);
			
			LCD_Clear();
			LCD_Printpos(0,0, "burning flash       ");
			
			write_firmware_to_flash();
    f954:	0e 94 72 79 	call	0xf2e4	; 0xf2e4 <write_firmware_to_flash>
    f958:	68 ce       	rjmp	.-816    	; 0xf62a <__vector_20+0xa6>
			//AND COMPARES IT TO THE CHECKSUM IN THE HEX-RECORD
			
			uint16_t vec_sum = 0;												//local helper variable for checksum calculation
			uint8_t checksum_from_file = hex_buffer_array[hex_record_size-1];   //read checksum from file
		
			for(int i = 0; i < hex_record_size - 1; ++i){						// accumulate record for checksum calculation
    f95a:	40 e0       	ldi	r20, 0x00	; 0
    f95c:	01 cf       	rjmp	.-510    	; 0xf760 <__vector_20+0x1dc>

0000f95e <strcmp>:
    f95e:	fb 01       	movw	r30, r22
    f960:	dc 01       	movw	r26, r24
    f962:	8d 91       	ld	r24, X+
    f964:	01 90       	ld	r0, Z+
    f966:	80 19       	sub	r24, r0
    f968:	01 10       	cpse	r0, r1
    f96a:	d9 f3       	breq	.-10     	; 0xf962 <strcmp+0x4>
    f96c:	99 0b       	sbc	r25, r25
    f96e:	08 95       	ret

0000f970 <_exit>:
    f970:	f8 94       	cli

0000f972 <__stop_program>:
    f972:	ff cf       	rjmp	.-2      	; 0xf972 <__stop_program>
